target datalayout = "e-m:e-p270:32:32-p271:32:32-p272:64:64-i64:64-i128:128-f80:128-n8:16:32:64-S128"
target triple = "x86_64-pc-linux-gnu"

; Function Attrs: nounwind uwtable
define internal ptr @ml_dsa_load(ptr noundef %0, i64 noundef %1) #0 {
  %3 = alloca ptr, align 8
  %4 = alloca ptr, align 8
  %5 = alloca i64, align 8
  %6 = alloca ptr, align 8
  %7 = alloca ptr, align 8
  %8 = alloca ptr, align 8
  %9 = alloca ptr, align 8
  %10 = alloca i32, align 4
  store ptr %0, ptr %4, align 8, !tbaa !3
  store i64 %1, ptr %5, align 8, !tbaa !16
  call void @llvm.lifetime.start.p0(i64 8, ptr %6) #5
  store ptr null, ptr %6, align 8, !tbaa !9
  call void @llvm.lifetime.start.p0(i64 8, ptr %7) #5
  store ptr null, ptr %7, align 8, !tbaa !9
  call void @llvm.lifetime.start.p0(i64 8, ptr %8) #5
  call void @llvm.lifetime.start.p0(i64 8, ptr %9) #5
  %11 = call i32 @ossl_prov_is_running()
  %12 = icmp ne i32 %11, 0
  br i1 %12, label %13, label %64

13:                                               ; preds = %2
  %14 = load i64, ptr %5, align 8, !tbaa !16
  %15 = icmp eq i64 %14, 8
  br i1 %15, label %16, label %64

16:                                               ; preds = %13
  %17 = load ptr, ptr %4, align 8, !tbaa !3
  %18 = load ptr, ptr %17, align 8, !tbaa !9
  store ptr %18, ptr %7, align 8, !tbaa !9
  %19 = load ptr, ptr %4, align 8, !tbaa !3
  store ptr null, ptr %19, align 8, !tbaa !9
  %20 = load ptr, ptr %7, align 8, !tbaa !9
  %21 = icmp eq ptr %20, null
  br i1 %21, label %26, label %22

22:                                               ; preds = %16
  %23 = load ptr, ptr %7, align 8, !tbaa !9
  %24 = call ptr @ossl_ml_dsa_key_get_pub(ptr noundef %23)
  %25 = icmp ne ptr %24, null
  br i1 %25, label %26, label %28

26:                                               ; preds = %22, %16
  %27 = load ptr, ptr %7, align 8, !tbaa !9
  store ptr %27, ptr %3, align 8
  store i32 1, ptr %10, align 4
  br label %71

28:                                               ; preds = %22
  %29 = load ptr, ptr %7, align 8, !tbaa !9
  %30 = call ptr @ossl_ml_dsa_key_get_priv(ptr noundef %29)
  store ptr %30, ptr %8, align 8, !tbaa !13
  %31 = load ptr, ptr %7, align 8, !tbaa !9
  %32 = call ptr @ossl_ml_dsa_key_get_seed(ptr noundef %31)
  store ptr %32, ptr %9, align 8, !tbaa !13
  %33 = load ptr, ptr %9, align 8, !tbaa !13
  %34 = icmp ne ptr %33, null
  br i1 %34, label %35, label %49

35:                                               ; preds = %28
  %36 = load ptr, ptr %8, align 8, !tbaa !13
  %37 = icmp eq ptr %36, null
  br i1 %37, label %42, label %38

38:                                               ; preds = %35
  %39 = load ptr, ptr %7, align 8, !tbaa !9
  %40 = call i32 @ossl_ml_dsa_key_prefer_seed(ptr noundef %39)
  %41 = icmp ne i32 %40, 0
  br i1 %41, label %42, label %49

42:                                               ; preds = %38, %35
  %43 = load ptr, ptr %7, align 8, !tbaa !9
  %44 = call i32 @ossl_ml_dsa_generate_key(ptr noundef %43)
  %45 = icmp ne i32 %44, 0
  br i1 %45, label %46, label %48

46:                                               ; preds = %42
  %47 = load ptr, ptr %7, align 8, !tbaa !9
  store ptr %47, ptr %6, align 8, !tbaa !9
  br label %48

48:                                               ; preds = %46, %42
  br label %63

49:                                               ; preds = %38, %28
  %50 = load ptr, ptr %8, align 8, !tbaa !13
  %51 = icmp ne ptr %50, null
  br i1 %51, label %52, label %62

52:                                               ; preds = %49
  %53 = load ptr, ptr %7, align 8, !tbaa !9
  %54 = load ptr, ptr %8, align 8, !tbaa !13
  %55 = load ptr, ptr %7, align 8, !tbaa !9
  %56 = call i64 @ossl_ml_dsa_key_get_priv_len(ptr noundef %55)
  %57 = call i32 @ossl_ml_dsa_sk_decode(ptr noundef %53, ptr noundef %54, i64 noundef %56)
  %58 = icmp ne i32 %57, 0
  br i1 %58, label %59, label %61

59:                                               ; preds = %52
  %60 = load ptr, ptr %7, align 8, !tbaa !9
  store ptr %60, ptr %6, align 8, !tbaa !9
  br label %61

61:                                               ; preds = %59, %52
  br label %62

62:                                               ; preds = %61, %49
  br label %63

63:                                               ; preds = %62, %48
  br label %64

64:                                               ; preds = %63, %13, %2
  %65 = load ptr, ptr %6, align 8, !tbaa !9
  %66 = icmp eq ptr %65, null
  br i1 %66, label %67, label %69

67:                                               ; preds = %64
  %68 = load ptr, ptr %7, align 8, !tbaa !9
  call void @ossl_ml_dsa_key_free(ptr noundef %68)
  br label %69

69:                                               ; preds = %67, %64
  %70 = load ptr, ptr %6, align 8, !tbaa !9
  store ptr %70, ptr %3, align 8
  store i32 1, ptr %10, align 4
  br label %71

71:                                               ; preds = %69, %26
  call void @llvm.lifetime.end.p0(i64 8, ptr %9) #5
  call void @llvm.lifetime.end.p0(i64 8, ptr %8) #5
  call void @llvm.lifetime.end.p0(i64 8, ptr %7) #5
  call void @llvm.lifetime.end.p0(i64 8, ptr %6) #5
  %72 = load ptr, ptr %3, align 8
  ret ptr %72
}