; Function Attrs: nounwind uwtable
define internal ptr @ml_dsa_load(ptr noundef captures(none) %0, i64 noundef %1) #0 {
  %3 = tail call i32 @ossl_prov_is_running() #6
  %4 = icmp ne i32 %3, 0
  %5 = icmp eq i64 %1, 8
  %or.cond = and i1 %5, %4
  br i1 %or.cond, label %6, label %select.unfold

6:                                                ; preds = %2
  %7 = load ptr, ptr %0, align 8, !tbaa !18
  store ptr null, ptr %0, align 8, !tbaa !18
  %8 = icmp eq ptr %7, null
  br i1 %8, label %22, label %9

9:                                                ; preds = %6
  %10 = tail call ptr @ossl_ml_dsa_key_get_pub(ptr noundef nonnull %7) #6
  %.not = icmp eq ptr %10, null
  br i1 %.not, label %11, label %22

11:                                               ; preds = %9
  %12 = tail call ptr @ossl_ml_dsa_key_get_priv(ptr noundef nonnull %7) #6
  %13 = tail call ptr @ossl_ml_dsa_key_get_seed(ptr noundef nonnull %7) #6
  %.not26 = icmp eq ptr %13, null
  %.not28 = icmp eq ptr %12, null
  br i1 %.not26, label %19, label %14

14:                                               ; preds = %11
  br i1 %.not28, label %17, label %15

15:                                               ; preds = %14
  %16 = tail call i32 @ossl_ml_dsa_key_prefer_seed(ptr noundef nonnull %7) #6
  %.not27 = icmp eq i32 %16, 0
  br i1 %.not27, label %.thread, label %17

17:                                               ; preds = %15, %14
  %18 = tail call i32 @ossl_ml_dsa_generate_key(ptr noundef nonnull %7) #6
  %.not30 = icmp eq i32 %18, 0
  br i1 %.not30, label %select.unfold, label %22

19:                                               ; preds = %11
  br i1 %.not28, label %select.unfold, label %.thread

.thread:                                          ; preds = %15, %19
  %20 = tail call i64 @ossl_ml_dsa_key_get_priv_len(ptr noundef nonnull %7) #6
  %21 = tail call i32 @ossl_ml_dsa_sk_decode(ptr noundef nonnull %7, ptr noundef nonnull %12, i64 noundef %20) #6
  %.not29 = icmp eq i32 %21, 0
  br i1 %.not29, label %select.unfold, label %22

select.unfold:                                    ; preds = %.thread, %17, %19, %2
  %.023.ph = phi ptr [ null, %2 ], [ %7, %19 ], [ %7, %17 ], [ %7, %.thread ]
  tail call void @ossl_ml_dsa_key_free(ptr noundef %.023.ph) #6
  br label %22

22:                                               ; preds = %17, %.thread, %select.unfold, %6, %9
  %.0 = phi ptr [ %7, %9 ], [ null, %6 ], [ null, %select.unfold ], [ %7, %17 ], [ %7, %.thread ]
  ret ptr %.0
}